target datalayout = "e-m:e-p270:32:32-p271:32:32-p272:64:64-i64:64-i128:128-f80:128-n8:16:32:64-S128"
target triple = "x86_64-pc-linux-gnu"

%class.Draw = type { i8, ptr, ptr, ptr, ptr, ptr, ptr, ptr, ptr, %struct.b2DebugDraw, ptr, ptr, ptr, ptr }
%struct.b2DebugDraw = type { ptr, ptr, ptr, ptr, ptr, ptr, ptr, ptr, ptr, %struct.b2AABB, i8, i8, i8, i8, i8, i8, i8, i8, i8, i8, i8, i8, ptr }
%struct.b2AABB = type { %struct.b2Vec2, %struct.b2Vec2 }
%struct.b2Vec2 = type { float, float }
%struct.b2Transform = type { %struct.b2Vec2, %struct.b2Rot }
%struct.b2Rot = type { float, float }

; Function Attrs: mustprogress uwtable
define dso_local void @_ZN4Draw16DrawSolidPolygonE11b2TransformPK6b2Vec2if10b2HexColor(ptr noundef nonnull align 8 dereferenceable(216) %0, <2 x float> %1, <2 x float> %2, ptr noundef %3, i32 noundef %4, float noundef %5, i32 noundef %6) #6 align 2 {
  %8 = alloca %struct.b2Transform, align 4
  %9 = alloca ptr, align 8
  %10 = alloca ptr, align 8
  %11 = alloca i32, align 4
  %12 = alloca float, align 4
  %13 = alloca i32, align 4
  %14 = getelementptr inbounds nuw { <2 x float>, <2 x float> }, ptr %8, i32 0, i32 0
  store <2 x float> %1, ptr %14, align 4
  %15 = getelementptr inbounds nuw { <2 x float>, <2 x float> }, ptr %8, i32 0, i32 1
  store <2 x float> %2, ptr %15, align 4
  store ptr %0, ptr %9, align 8, !tbaa !30
  store ptr %3, ptr %10, align 8, !tbaa !24
  store i32 %4, ptr %11, align 4, !tbaa !26
  store float %5, ptr %12, align 4, !tbaa !18
  store i32 %6, ptr %13, align 4, !tbaa !27
  %16 = load ptr, ptr %9, align 8
  %17 = getelementptr inbounds nuw %class.Draw, ptr %16, i32 0, i32 8
  %18 = load ptr, ptr %17, align 8, !tbaa !49
  %19 = load ptr, ptr %10, align 8, !tbaa !24
  %20 = load i32, ptr %11, align 4, !tbaa !26
  %21 = load float, ptr %12, align 4, !tbaa !18
  %22 = load i32, ptr %13, align 4, !tbaa !27
  call void @_ZN15GLSolidPolygons10AddPolygonERK11b2TransformPK6b2Vec2if10b2HexColor(ptr noundef nonnull align 8 dereferenceable(48) %18, ptr noundef nonnull align 4 dereferenceable(16) %8, ptr noundef %19, i32 noundef %20, float noundef %21, i32 noundef %22)
  ret void
}