; Function Attrs: mustprogress uwtable
define dso_local void @_ZN4Draw16DrawSolidPolygonE11b2TransformPK6b2Vec2if10b2HexColor(ptr noundef nonnull readonly align 8 captures(none) dereferenceable(216) %0, <2 x float> %1, <2 x float> %2, ptr noundef %3, i32 noundef %4, float noundef %5, i32 noundef %6) local_unnamed_addr #5 align 2 {
  %8 = alloca %struct.b2Transform, align 8
  store <2 x float> %1, ptr %8, align 8
  %9 = getelementptr inbounds nuw i8, ptr %8, i64 8
  store <2 x float> %2, ptr %9, align 8
  %10 = getelementptr inbounds nuw i8, ptr %0, i64 64
  %11 = load ptr, ptr %10, align 8, !tbaa !33
  call void @_ZN15GLSolidPolygons10AddPolygonERK11b2TransformPK6b2Vec2if10b2HexColor(ptr noundef nonnull align 8 dereferenceable(48) %11, ptr noundef nonnull align 4 dereferenceable(16) %8, ptr noundef %3, i32 noundef %4, float noundef %5, i32 noundef %6)
  ret void
}